; Function Attrs: mustprogress uwtable
define internal void @_ZN12_GLOBAL__N_123AdaptiveManifoldFilterN8upsampleERKN2cv3MatERS2_(ptr noundef nonnull readonly align 8 captures(none) dereferenceable(592) %0, ptr noundef nonnull align 8 dereferenceable(96) %1, ptr noundef nonnull align 8 dereferenceable(96) %2) #3 align 2 personality ptr @__gxx_personality_v0 {
  %4 = alloca %"class.cv::_InputArray", align 8
  %5 = alloca %"class.cv::_OutputArray", align 8
  call void @llvm.lifetime.start.p0(i64 24, ptr nonnull %4) #27
  %6 = getelementptr inbounds nuw i8, ptr %4, i64 16
  store i32 0, ptr %6, align 8, !tbaa !72
  %7 = getelementptr inbounds nuw i8, ptr %4, i64 20
  store i32 0, ptr %7, align 4, !tbaa !73
  store i32 16842752, ptr %4, align 8, !tbaa !66
  %8 = getelementptr inbounds nuw i8, ptr %4, i64 8
  store ptr %1, ptr %8, align 8, !tbaa !68
  call void @llvm.lifetime.start.p0(i64 24, ptr nonnull %5) #27
  %9 = getelementptr inbounds nuw i8, ptr %5, i64 8
  %10 = getelementptr inbounds nuw i8, ptr %5, i64 16
  store i64 0, ptr %10, align 8
  store i32 33619968, ptr %5, align 8, !tbaa !66
  store ptr %2, ptr %9, align 8, !tbaa !68
  %11 = getelementptr inbounds nuw i8, ptr %0, i64 44
  %.sroa.0.0.copyload = load i64, ptr %11, align 4
  call void @_ZN2cv6resizeERKNS_11_InputArrayERKNS_12_OutputArrayENS_5Size_IiEEddi(ptr noundef nonnull align 8 dereferenceable(24) %4, ptr noundef nonnull align 8 dereferenceable(24) %5, i64 %.sroa.0.0.copyload, double noundef 0.000000e+00, double noundef 0.000000e+00, i32 noundef 1)
  call void @llvm.lifetime.end.p0(i64 24, ptr nonnull %5) #27
  call void @llvm.lifetime.end.p0(i64 24, ptr nonnull %4) #27
  ret void
}